target datalayout = "e-m:e-p270:32:32-p271:32:32-p272:64:64-i64:64-i128:128-f80:128-n8:16:32:64-S128"
target triple = "x86_64-pc-linux-gnu"

%struct.Agobj_s = type { %struct.Agtag_s, ptr }
%struct.Agtag_s = type { i32, i64 }
%struct.Agraphinfo_t = type { %struct.Agrec_s, ptr, ptr, %struct.boxf, [4 x %struct.pointf_s], i8, i8, i8, i8, i32, double, double, i16, ptr, ptr, ptr, ptr, i32, ptr, ptr, ptr, ptr, i16, i16, i32, ptr, ptr, ptr, ptr, ptr, i32, ptr, ptr, %struct.nlist_t, ptr, ptr, i32, i32, i8, i8, i32, i32, i32, ptr, ptr, ptr, ptr, i8, i8, i8, i8, i8 }
%struct.Agrec_s = type { ptr, ptr }
%struct.boxf = type { %struct.pointf_s, %struct.pointf_s }
%struct.pointf_s = type { double, double }
%struct.nlist_t = type { ptr, i64 }
%struct.rank_t = type { i32, ptr, i32, ptr, double, double, double, double, i8, i8, i64, ptr }
%struct.Agnodeinfo_t = type { %struct.Agrec_s, ptr, ptr, %struct.pointf_s, double, double, %struct.boxf, double, double, double, double, double, ptr, ptr, ptr, i8, i8, i8, i8, i32, i32, i32, ptr, double, i8, i8, ptr, ptr, i8, i64, i8, i8, i8, ptr, ptr, %struct.elist, %struct.elist, %struct.elist, %struct.elist, %struct.elist, ptr, i32, ptr, i32, i32, double, %struct.elist, %struct.elist, %struct.elist, %struct.elist, ptr, i32, i32, i32, [1 x double] }
%struct.elist = type { ptr, i64 }
%struct.Agedge_s = type { %struct.Agobj_s, %struct.dtlink_s_, %struct.dtlink_s_, ptr }
%struct.dtlink_s_ = type { ptr, %union.anon.0 }
%union.anon.0 = type { ptr }

@stderr = external global ptr, align 8
@.str.10 = private unnamed_addr constant [58 x i8] c"integer overflow when trying to allocate %zu * %zu bytes\0A\00", align 1
@.str.11 = private unnamed_addr constant [49 x i8] c"out of memory when trying to allocate %zu bytes\0A\00", align 1

; Function Attrs: inlinehint nounwind uwtable
define internal ptr @gv_calloc(i64 noundef %0, i64 noundef %1) #4 {
  %3 = alloca i64, align 8
  %4 = alloca i64, align 8
  %5 = alloca ptr, align 8
  store i64 %0, ptr %3, align 8, !tbaa !77
  store i64 %1, ptr %4, align 8, !tbaa !77
  %6 = load i64, ptr %3, align 8, !tbaa !77
  %7 = icmp ugt i64 %6, 0
  br i1 %7, label %8, label %18

8:                                                ; preds = %2
  %9 = load i64, ptr %3, align 8, !tbaa !77
  %10 = udiv i64 -1, %9
  %11 = load i64, ptr %4, align 8, !tbaa !77
  %12 = icmp ult i64 %10, %11
  br i1 %12, label %13, label %18

13:                                               ; preds = %8
  %14 = load ptr, ptr @stderr, align 8, !tbaa !89
  %15 = load i64, ptr %3, align 8, !tbaa !77
  %16 = load i64, ptr %4, align 8, !tbaa !77
  %17 = call i32 (ptr, ptr, ...) @fprintf(ptr noundef %14, ptr noundef @.str.10, i64 noundef %15, i64 noundef %16) #15
  call void @graphviz_exit(i32 noundef 1) #16
  unreachable

18:                                               ; preds = %8, %2
  call void @llvm.lifetime.start.p0(i64 8, ptr %5) #15
  %19 = load i64, ptr %3, align 8, !tbaa !77
  %20 = load i64, ptr %4, align 8, !tbaa !77
  %21 = call noalias ptr @calloc(i64 noundef %19, i64 noundef %20) #17
  store ptr %21, ptr %5, align 8, !tbaa !63
  %22 = load i64, ptr %3, align 8, !tbaa !77
  %23 = icmp ugt i64 %22, 0
  br i1 %23, label %24, label %36

24:                                               ; preds = %18
  %25 = load i64, ptr %4, align 8, !tbaa !77
  %26 = icmp ugt i64 %25, 0
  br i1 %26, label %27, label %36

27:                                               ; preds = %24
  %28 = load ptr, ptr %5, align 8, !tbaa !63
  %29 = icmp eq ptr %28, null
  br i1 %29, label %30, label %36

30:                                               ; preds = %27
  %31 = load ptr, ptr @stderr, align 8, !tbaa !89
  %32 = load i64, ptr %3, align 8, !tbaa !77
  %33 = load i64, ptr %4, align 8, !tbaa !77
  %34 = mul i64 %32, %33
  %35 = call i32 (ptr, ptr, ...) @fprintf(ptr noundef %31, ptr noundef @.str.11, i64 noundef %34) #15
  call void @graphviz_exit(i32 noundef 1) #16
  unreachable

36:                                               ; preds = %27, %24, %18
  %37 = load ptr, ptr %5, align 8, !tbaa !63
  call void @llvm.lifetime.end.p0(i64 8, ptr %5) #15
  ret ptr %37
}

; Function Attrs: nounwind uwtable
define void @allocate_ranks(ptr noundef %0) #0 {
  %2 = alloca ptr, align 8
  %3 = alloca i32, align 4
  %4 = alloca i32, align 4
  %5 = alloca i32, align 4
  %6 = alloca ptr, align 8
  %7 = alloca ptr, align 8
  %8 = alloca ptr, align 8
  %9 = alloca [4 x i8], align 1
  store ptr %0, ptr %2, align 8, !tbaa !3
  call void @llvm.lifetime.start.p0(i64 4, ptr %3) #15
  call void @llvm.lifetime.start.p0(i64 4, ptr %4) #15
  call void @llvm.lifetime.start.p0(i64 4, ptr %5) #15
  call void @llvm.lifetime.start.p0(i64 8, ptr %6) #15
  call void @llvm.lifetime.start.p0(i64 8, ptr %7) #15
  call void @llvm.lifetime.start.p0(i64 8, ptr %8) #15
  %10 = load ptr, ptr %2, align 8, !tbaa !3
  %11 = getelementptr inbounds nuw %struct.Agobj_s, ptr %10, i32 0, i32 1
  %12 = load ptr, ptr %11, align 8, !tbaa !8
  %13 = getelementptr inbounds nuw %struct.Agraphinfo_t, ptr %12, i32 0, i32 37
  %14 = load i32, ptr %13, align 4, !tbaa !34
  %15 = add nsw i32 %14, 2
  %16 = sext i32 %15 to i64
  %17 = call ptr @gv_calloc(i64 noundef %16, i64 noundef 4)
  store ptr %17, ptr %8, align 8, !tbaa !71
  %18 = load ptr, ptr %2, align 8, !tbaa !3
  %19 = call ptr @agfstnode(ptr noundef %18)
  store ptr %19, ptr %6, align 8, !tbaa !41
  br label %20

20:                                               ; preds = %110, %1
  %21 = load ptr, ptr %6, align 8, !tbaa !41
  %22 = icmp ne ptr %21, null
  br i1 %22, label %23, label %114

23:                                               ; preds = %20
  %24 = load ptr, ptr %8, align 8, !tbaa !71
  %25 = load ptr, ptr %6, align 8, !tbaa !41
  %26 = getelementptr inbounds nuw %struct.Agobj_s, ptr %25, i32 0, i32 1
  %27 = load ptr, ptr %26, align 8, !tbaa !8
  %28 = getelementptr inbounds nuw %struct.Agnodeinfo_t, ptr %27, i32 0, i32 43
  %29 = load i32, ptr %28, align 8, !tbaa !119
  %30 = sext i32 %29 to i64
  %31 = getelementptr inbounds i32, ptr %24, i64 %30
  %32 = load i32, ptr %31, align 4, !tbaa !33
  %33 = add nsw i32 %32, 1
  store i32 %33, ptr %31, align 4, !tbaa !33
  %34 = load ptr, ptr %2, align 8, !tbaa !3
  %35 = load ptr, ptr %6, align 8, !tbaa !41
  %36 = call ptr @agfstout(ptr noundef %34, ptr noundef %35)
  store ptr %36, ptr %7, align 8, !tbaa !49
  br label %37

37:                                               ; preds = %105, %23
  %38 = load ptr, ptr %7, align 8, !tbaa !49
  %39 = icmp ne ptr %38, null
  br i1 %39, label %40, label %109

40:                                               ; preds = %37
  %41 = load ptr, ptr %7, align 8, !tbaa !49
  %42 = getelementptr inbounds nuw %struct.Agobj_s, ptr %41, i32 0, i32 0
  %43 = load i32, ptr %42, align 8
  %44 = and i32 %43, 3
  %45 = icmp eq i32 %44, 3
  br i1 %45, label %46, label %48

46:                                               ; preds = %40
  %47 = load ptr, ptr %7, align 8, !tbaa !49
  br label %51

48:                                               ; preds = %40
  %49 = load ptr, ptr %7, align 8, !tbaa !49
  %50 = getelementptr inbounds %struct.Agedge_s, ptr %49, i64 1
  br label %51

51:                                               ; preds = %48, %46
  %52 = phi ptr [ %47, %46 ], [ %50, %48 ]
  %53 = getelementptr inbounds nuw %struct.Agedge_s, ptr %52, i32 0, i32 3
  %54 = load ptr, ptr %53, align 8, !tbaa !51
  %55 = getelementptr inbounds nuw %struct.Agobj_s, ptr %54, i32 0, i32 1
  %56 = load ptr, ptr %55, align 8, !tbaa !8
  %57 = getelementptr inbounds nuw %struct.Agnodeinfo_t, ptr %56, i32 0, i32 43
  %58 = load i32, ptr %57, align 8, !tbaa !119
  store i32 %58, ptr %4, align 4, !tbaa !33
  %59 = load ptr, ptr %7, align 8, !tbaa !49
  %60 = getelementptr inbounds nuw %struct.Agobj_s, ptr %59, i32 0, i32 0
  %61 = load i32, ptr %60, align 8
  %62 = and i32 %61, 3
  %63 = icmp eq i32 %62, 2
  br i1 %63, label %64, label %66

64:                                               ; preds = %51
  %65 = load ptr, ptr %7, align 8, !tbaa !49
  br label %69

66:                                               ; preds = %51
  %67 = load ptr, ptr %7, align 8, !tbaa !49
  %68 = getelementptr inbounds %struct.Agedge_s, ptr %67, i64 -1
  br label %69

69:                                               ; preds = %66, %64
  %70 = phi ptr [ %65, %64 ], [ %68, %66 ]
  %71 = getelementptr inbounds nuw %struct.Agedge_s, ptr %70, i32 0, i32 3
  %72 = load ptr, ptr %71, align 8, !tbaa !51
  %73 = getelementptr inbounds nuw %struct.Agobj_s, ptr %72, i32 0, i32 1
  %74 = load ptr, ptr %73, align 8, !tbaa !8
  %75 = getelementptr inbounds nuw %struct.Agnodeinfo_t, ptr %74, i32 0, i32 43
  %76 = load i32, ptr %75, align 8, !tbaa !119
  store i32 %76, ptr %5, align 4, !tbaa !33
  %77 = load i32, ptr %4, align 4, !tbaa !33
  %78 = load i32, ptr %5, align 4, !tbaa !33
  %79 = icmp sgt i32 %77, %78
  br i1 %79, label %80, label %87

80:                                               ; preds = %69
  br label %81

81:                                               ; preds = %80
  call void @llvm.lifetime.start.p0(i64 4, ptr %9) #15
  %82 = getelementptr inbounds [4 x i8], ptr %9, i64 0, i64 0
  call void @llvm.memcpy.p0.p0.i64(ptr align 1 %82, ptr align 4 %4, i64 4, i1 false)
  %83 = load i32, ptr %5, align 4, !tbaa !33
  store i32 %83, ptr %4, align 4, !tbaa !33
  %84 = getelementptr inbounds [4 x i8], ptr %9, i64 0, i64 0
  call void @llvm.memcpy.p0.p0.i64(ptr align 4 %5, ptr align 1 %84, i64 4, i1 false)
  call void @llvm.lifetime.end.p0(i64 4, ptr %9) #15
  br label %85

85:                                               ; preds = %81
  br label %86

86:                                               ; preds = %85
  br label %87

87:                                               ; preds = %86, %69
  %88 = load i32, ptr %4, align 4, !tbaa !33
  %89 = add nsw i32 %88, 1
  store i32 %89, ptr %3, align 4, !tbaa !33
  br label %90

90:                                               ; preds = %101, %87
  %91 = load i32, ptr %3, align 4, !tbaa !33
  %92 = load i32, ptr %5, align 4, !tbaa !33
  %93 = icmp slt i32 %91, %92
  br i1 %93, label %94, label %104

94:                                               ; preds = %90
  %95 = load ptr, ptr %8, align 8, !tbaa !71
  %96 = load i32, ptr %3, align 4, !tbaa !33
  %97 = sext i32 %96 to i64
  %98 = getelementptr inbounds i32, ptr %95, i64 %97
  %99 = load i32, ptr %98, align 4, !tbaa !33
  %100 = add nsw i32 %99, 1
  store i32 %100, ptr %98, align 4, !tbaa !33
  br label %101

101:                                              ; preds = %94
  %102 = load i32, ptr %3, align 4, !tbaa !33
  %103 = add nsw i32 %102, 1
  store i32 %103, ptr %3, align 4, !tbaa !33
  br label %90, !llvm.loop !120

104:                                              ; preds = %90
  br label %105

105:                                              ; preds = %104
  %106 = load ptr, ptr %2, align 8, !tbaa !3
  %107 = load ptr, ptr %7, align 8, !tbaa !49
  %108 = call ptr @agnxtout(ptr noundef %106, ptr noundef %107)
  store ptr %108, ptr %7, align 8, !tbaa !49
  br label %37, !llvm.loop !121

109:                                              ; preds = %37
  br label %110

110:                                              ; preds = %109
  %111 = load ptr, ptr %2, align 8, !tbaa !3
  %112 = load ptr, ptr %6, align 8, !tbaa !41
  %113 = call ptr @agnxtnode(ptr noundef %111, ptr noundef %112)
  store ptr %113, ptr %6, align 8, !tbaa !41
  br label %20, !llvm.loop !122

114:                                              ; preds = %20
  %115 = load ptr, ptr %2, align 8, !tbaa !3
  %116 = getelementptr inbounds nuw %struct.Agobj_s, ptr %115, i32 0, i32 1
  %117 = load ptr, ptr %116, align 8, !tbaa !8
  %118 = getelementptr inbounds nuw %struct.Agraphinfo_t, ptr %117, i32 0, i32 37
  %119 = load i32, ptr %118, align 4, !tbaa !34
  %120 = add nsw i32 %119, 2
  %121 = sext i32 %120 to i64
  %122 = call ptr @gv_calloc(i64 noundef %121, i64 noundef 88)
  %123 = load ptr, ptr %2, align 8, !tbaa !3
  %124 = getelementptr inbounds nuw %struct.Agobj_s, ptr %123, i32 0, i32 1
  %125 = load ptr, ptr %124, align 8, !tbaa !8
  %126 = getelementptr inbounds nuw %struct.Agraphinfo_t, ptr %125, i32 0, i32 28
  store ptr %122, ptr %126, align 8, !tbaa !35
  %127 = load ptr, ptr %2, align 8, !tbaa !3
  %128 = getelementptr inbounds nuw %struct.Agobj_s, ptr %127, i32 0, i32 1
  %129 = load ptr, ptr %128, align 8, !tbaa !8
  %130 = getelementptr inbounds nuw %struct.Agraphinfo_t, ptr %129, i32 0, i32 36
  %131 = load i32, ptr %130, align 8, !tbaa !14
  store i32 %131, ptr %3, align 4, !tbaa !33
  br label %132

132:                                              ; preds = %191, %114
  %133 = load i32, ptr %3, align 4, !tbaa !33
  %134 = load ptr, ptr %2, align 8, !tbaa !3
  %135 = getelementptr inbounds nuw %struct.Agobj_s, ptr %134, i32 0, i32 1
  %136 = load ptr, ptr %135, align 8, !tbaa !8
  %137 = getelementptr inbounds nuw %struct.Agraphinfo_t, ptr %136, i32 0, i32 37
  %138 = load i32, ptr %137, align 4, !tbaa !34
  %139 = icmp sle i32 %133, %138
  br i1 %139, label %140, label %194

140:                                              ; preds = %132
  %141 = load ptr, ptr %8, align 8, !tbaa !71
  %142 = load i32, ptr %3, align 4, !tbaa !33
  %143 = sext i32 %142 to i64
  %144 = getelementptr inbounds i32, ptr %141, i64 %143
  %145 = load i32, ptr %144, align 4, !tbaa !33
  %146 = add nsw i32 %145, 1
  %147 = load ptr, ptr %2, align 8, !tbaa !3
  %148 = getelementptr inbounds nuw %struct.Agobj_s, ptr %147, i32 0, i32 1
  %149 = load ptr, ptr %148, align 8, !tbaa !8
  %150 = getelementptr inbounds nuw %struct.Agraphinfo_t, ptr %149, i32 0, i32 28
  %151 = load ptr, ptr %150, align 8, !tbaa !35
  %152 = load i32, ptr %3, align 4, !tbaa !33
  %153 = sext i32 %152 to i64
  %154 = getelementptr inbounds %struct.rank_t, ptr %151, i64 %153
  %155 = getelementptr inbounds nuw %struct.rank_t, ptr %154, i32 0, i32 0
  store i32 %146, ptr %155, align 8, !tbaa !37
  %156 = load ptr, ptr %2, align 8, !tbaa !3
  %157 = getelementptr inbounds nuw %struct.Agobj_s, ptr %156, i32 0, i32 1
  %158 = load ptr, ptr %157, align 8, !tbaa !8
  %159 = getelementptr inbounds nuw %struct.Agraphinfo_t, ptr %158, i32 0, i32 28
  %160 = load ptr, ptr %159, align 8, !tbaa !35
  %161 = load i32, ptr %3, align 4, !tbaa !33
  %162 = sext i32 %161 to i64
  %163 = getelementptr inbounds %struct.rank_t, ptr %160, i64 %162
  %164 = getelementptr inbounds nuw %struct.rank_t, ptr %163, i32 0, i32 2
  store i32 %146, ptr %164, align 8, !tbaa !93
  %165 = load ptr, ptr %8, align 8, !tbaa !71
  %166 = load i32, ptr %3, align 4, !tbaa !33
  %167 = sext i32 %166 to i64
  %168 = getelementptr inbounds i32, ptr %165, i64 %167
  %169 = load i32, ptr %168, align 4, !tbaa !33
  %170 = add nsw i32 %169, 1
  %171 = sext i32 %170 to i64
  %172 = call ptr @gv_calloc(i64 noundef %171, i64 noundef 8)
  %173 = load ptr, ptr %2, align 8, !tbaa !3
  %174 = getelementptr inbounds nuw %struct.Agobj_s, ptr %173, i32 0, i32 1
  %175 = load ptr, ptr %174, align 8, !tbaa !8
  %176 = getelementptr inbounds nuw %struct.Agraphinfo_t, ptr %175, i32 0, i32 28
  %177 = load ptr, ptr %176, align 8, !tbaa !35
  %178 = load i32, ptr %3, align 4, !tbaa !33
  %179 = sext i32 %178 to i64
  %180 = getelementptr inbounds %struct.rank_t, ptr %177, i64 %179
  %181 = getelementptr inbounds nuw %struct.rank_t, ptr %180, i32 0, i32 1
  store ptr %172, ptr %181, align 8, !tbaa !40
  %182 = load ptr, ptr %2, align 8, !tbaa !3
  %183 = getelementptr inbounds nuw %struct.Agobj_s, ptr %182, i32 0, i32 1
  %184 = load ptr, ptr %183, align 8, !tbaa !8
  %185 = getelementptr inbounds nuw %struct.Agraphinfo_t, ptr %184, i32 0, i32 28
  %186 = load ptr, ptr %185, align 8, !tbaa !35
  %187 = load i32, ptr %3, align 4, !tbaa !33
  %188 = sext i32 %187 to i64
  %189 = getelementptr inbounds %struct.rank_t, ptr %186, i64 %188
  %190 = getelementptr inbounds nuw %struct.rank_t, ptr %189, i32 0, i32 3
  store ptr %172, ptr %190, align 8, !tbaa !94
  br label %191

191:                                              ; preds = %140
  %192 = load i32, ptr %3, align 4, !tbaa !33
  %193 = add nsw i32 %192, 1
  store i32 %193, ptr %3, align 4, !tbaa !33
  br label %132, !llvm.loop !123

194:                                              ; preds = %132
  %195 = load ptr, ptr %8, align 8, !tbaa !71
  call void @free(ptr noundef %195) #15
  call void @llvm.lifetime.end.p0(i64 8, ptr %8) #15
  call void @llvm.lifetime.end.p0(i64 8, ptr %7) #15
  call void @llvm.lifetime.end.p0(i64 8, ptr %6) #15
  call void @llvm.lifetime.end.p0(i64 4, ptr %5) #15
  call void @llvm.lifetime.end.p0(i64 4, ptr %4) #15
  call void @llvm.lifetime.end.p0(i64 4, ptr %3) #15
  ret void
}