; Function Attrs: nounwind uwtable
define void @allocate_ranks(ptr noundef %0) local_unnamed_addr #0 {
  %2 = getelementptr inbounds nuw i8, ptr %0, i64 16
  %3 = load ptr, ptr %2, align 8, !tbaa !3
  %4 = getelementptr inbounds nuw i8, ptr %3, i64 340
  %5 = load i32, ptr %4, align 4, !tbaa !32
  %6 = add nsw i32 %5, 2
  %7 = sext i32 %6 to i64
  %.not.i = icmp eq i32 %6, 0
  br i1 %.not.i, label %.thread.i, label %9

.thread.i:                                        ; preds = %1
  %8 = tail call noalias ptr @calloc(i64 noundef 0, i64 noundef 4) #27
  br label %gv_calloc.exit

9:                                                ; preds = %1
  %mul.ov.i = icmp slt i32 %5, -2
  br i1 %mul.ov.i, label %10, label %13

10:                                               ; preds = %9
  %11 = load ptr, ptr @stderr, align 8, !tbaa !47
  %12 = tail call i32 (ptr, ptr, ...) @fprintf(ptr noundef %11, ptr noundef nonnull @.str.10, i64 noundef %7, i64 noundef 4) #25
  tail call fastcc void @graphviz_exit() #26
  unreachable

13:                                               ; preds = %9
  %14 = tail call noalias ptr @calloc(i64 noundef %7, i64 noundef 4) #27
  %15 = icmp eq ptr %14, null
  br i1 %15, label %16, label %gv_calloc.exit

16:                                               ; preds = %13
  %17 = load ptr, ptr @stderr, align 8, !tbaa !47
  %18 = shl nuw nsw i64 %7, 2
  %19 = tail call i32 (ptr, ptr, ...) @fprintf(ptr noundef %17, ptr noundef nonnull @.str.11, i64 noundef %18) #25
  tail call fastcc void @graphviz_exit() #26
  unreachable

gv_calloc.exit:                                   ; preds = %.thread.i, %13
  %20 = phi ptr [ %8, %.thread.i ], [ %14, %13 ]
  %21 = tail call ptr @agfstnode(ptr noundef nonnull %0) #23
  %.not77 = icmp eq ptr %21, null
  br i1 %.not77, label %._crit_edge80, label %.lr.ph79

.lr.ph79:                                         ; preds = %gv_calloc.exit, %._crit_edge76
  %.04978 = phi ptr [ %57, %._crit_edge76 ], [ %21, %gv_calloc.exit ]
  %22 = getelementptr inbounds nuw i8, ptr %.04978, i64 16
  %23 = load ptr, ptr %22, align 8, !tbaa !3
  %24 = getelementptr inbounds nuw i8, ptr %23, i64 360
  %25 = load i32, ptr %24, align 8, !tbaa !138
  %26 = sext i32 %25 to i64
  %27 = getelementptr inbounds i32, ptr %20, i64 %26
  %28 = load i32, ptr %27, align 4, !tbaa !67
  %29 = add nsw i32 %28, 1
  store i32 %29, ptr %27, align 4, !tbaa !67
  %30 = tail call ptr @agfstout(ptr noundef nonnull %0, ptr noundef nonnull %.04978) #23
  %.not5672 = icmp eq ptr %30, null
  br i1 %.not5672, label %._crit_edge76, label %.lr.ph75

.lr.ph75:                                         ; preds = %.lr.ph79, %._crit_edge
  %.04873 = phi ptr [ %56, %._crit_edge ], [ %30, %.lr.ph79 ]
  %31 = load i32, ptr %.04873, align 8
  %32 = and i32 %31, 3
  %33 = icmp eq i32 %32, 3
  %.idx = select i1 %33, i64 0, i64 64
  %34 = getelementptr inbounds nuw i8, ptr %.04873, i64 %.idx
  %35 = getelementptr inbounds nuw i8, ptr %34, i64 56
  %36 = load ptr, ptr %35, align 8, !tbaa !51
  %37 = getelementptr inbounds nuw i8, ptr %36, i64 16
  %38 = load ptr, ptr %37, align 8, !tbaa !3
  %39 = getelementptr inbounds nuw i8, ptr %38, i64 360
  %40 = load i32, ptr %39, align 8, !tbaa !138
  %41 = icmp eq i32 %32, 2
  %.idx57 = select i1 %41, i64 0, i64 -64
  %42 = getelementptr inbounds i8, ptr %.04873, i64 %.idx57
  %43 = getelementptr inbounds nuw i8, ptr %42, i64 56
  %44 = load ptr, ptr %43, align 8, !tbaa !51
  %45 = getelementptr inbounds nuw i8, ptr %44, i64 16
  %46 = load ptr, ptr %45, align 8, !tbaa !3
  %47 = getelementptr inbounds nuw i8, ptr %46, i64 360
  %48 = load i32, ptr %47, align 8, !tbaa !138
  %spec.select = tail call i32 @llvm.smax.i32(i32 %40, i32 %48)
  %spec.select58 = tail call i32 @llvm.smin.i32(i32 %40, i32 %48)
  %.070 = add nsw i32 %spec.select58, 1
  %49 = icmp slt i32 %.070, %spec.select
  br i1 %49, label %.lr.ph.preheader, label %._crit_edge

.lr.ph.preheader:                                 ; preds = %.lr.ph75
  %50 = tail call i32 @llvm.smin.i32(i32 %48, i32 %40)
  %smin = sext i32 %50 to i64
  %51 = add nsw i64 %smin, 1
  %52 = tail call i32 @llvm.smax.i32(i32 %40, i32 %48)
  br label %.lr.ph

.lr.ph:                                           ; preds = %.lr.ph.preheader, %.lr.ph
  %indvars.iv = phi i64 [ %51, %.lr.ph.preheader ], [ %indvars.iv.next, %.lr.ph ]
  %53 = getelementptr inbounds i32, ptr %20, i64 %indvars.iv
  %54 = load i32, ptr %53, align 4, !tbaa !67
  %55 = add nsw i32 %54, 1
  store i32 %55, ptr %53, align 4, !tbaa !67
  %indvars.iv.next = add nsw i64 %indvars.iv, 1
  %lftr.wideiv = trunc i64 %indvars.iv.next to i32
  %exitcond.not = icmp eq i32 %52, %lftr.wideiv
  br i1 %exitcond.not, label %._crit_edge, label %.lr.ph, !llvm.loop !155

._crit_edge:                                      ; preds = %.lr.ph, %.lr.ph75
  %56 = tail call ptr @agnxtout(ptr noundef nonnull %0, ptr noundef nonnull %.04873) #23
  %.not56 = icmp eq ptr %56, null
  br i1 %.not56, label %._crit_edge76, label %.lr.ph75, !llvm.loop !156

._crit_edge76:                                    ; preds = %._crit_edge, %.lr.ph79
  %57 = tail call ptr @agnxtnode(ptr noundef nonnull %0, ptr noundef nonnull %.04978) #23
  %.not = icmp eq ptr %57, null
  br i1 %.not, label %._crit_edge80, label %.lr.ph79, !llvm.loop !157

._crit_edge80:                                    ; preds = %._crit_edge76, %gv_calloc.exit
  %58 = load ptr, ptr %2, align 8, !tbaa !3
  %59 = getelementptr inbounds nuw i8, ptr %58, i64 340
  %60 = load i32, ptr %59, align 4, !tbaa !32
  %61 = add nsw i32 %60, 2
  %62 = sext i32 %61 to i64
  %.not.i59 = icmp eq i32 %61, 0
  br i1 %.not.i59, label %.thread.i62, label %64

.thread.i62:                                      ; preds = %._crit_edge80
  %63 = tail call noalias ptr @calloc(i64 noundef 0, i64 noundef 88) #27
  br label %gv_calloc.exit63

64:                                               ; preds = %._crit_edge80
  %mul.ov.i61 = icmp slt i32 %60, -2
  br i1 %mul.ov.i61, label %65, label %68

65:                                               ; preds = %64
  %66 = load ptr, ptr @stderr, align 8, !tbaa !47
  %67 = tail call i32 (ptr, ptr, ...) @fprintf(ptr noundef %66, ptr noundef nonnull @.str.10, i64 noundef %62, i64 noundef 88) #25
  tail call fastcc void @graphviz_exit() #26
  unreachable

68:                                               ; preds = %64
  %69 = tail call noalias ptr @calloc(i64 noundef %62, i64 noundef 88) #27
  %70 = icmp eq ptr %69, null
  br i1 %70, label %71, label %gv_calloc.exit63

71:                                               ; preds = %68
  %72 = load ptr, ptr @stderr, align 8, !tbaa !47
  %73 = mul nuw nsw i64 %62, 88
  %74 = tail call i32 (ptr, ptr, ...) @fprintf(ptr noundef %72, ptr noundef nonnull @.str.11, i64 noundef %73) #25
  tail call fastcc void @graphviz_exit() #26
  unreachable

gv_calloc.exit63:                                 ; preds = %.thread.i62, %68
  %75 = phi ptr [ %63, %.thread.i62 ], [ %69, %68 ]
  %76 = getelementptr inbounds nuw i8, ptr %58, i64 264
  store ptr %75, ptr %76, align 8, !tbaa !33
  %77 = getelementptr inbounds nuw i8, ptr %58, i64 336
  %78 = load i32, ptr %77, align 8, !tbaa !12
  %.not5581 = icmp sgt i32 %78, %60
  br i1 %.not5581, label %._crit_edge84, label %.lr.ph83.preheader

.lr.ph83.preheader:                               ; preds = %gv_calloc.exit63
  %79 = sext i32 %78 to i64
  %80 = add i32 %60, 1
  br label %.lr.ph83

.lr.ph83:                                         ; preds = %.lr.ph83.preheader, %gv_calloc.exit68
  %indvars.iv87 = phi i64 [ %79, %.lr.ph83.preheader ], [ %indvars.iv.next88, %gv_calloc.exit68 ]
  %81 = getelementptr inbounds i32, ptr %20, i64 %indvars.iv87
  %82 = load i32, ptr %81, align 4, !tbaa !67
  %83 = add nsw i32 %82, 1
  %84 = getelementptr inbounds %struct.rank_t, ptr %75, i64 %indvars.iv87
  store i32 %83, ptr %84, align 8, !tbaa !34
  %85 = getelementptr inbounds %struct.rank_t, ptr %75, i64 %indvars.iv87, i32 2
  store i32 %83, ptr %85, align 8, !tbaa !89
  %86 = sext i32 %83 to i64
  %.not.i64 = icmp eq i32 %83, 0
  br i1 %.not.i64, label %.thread.i67, label %88

.thread.i67:                                      ; preds = %.lr.ph83
  %87 = tail call noalias ptr @calloc(i64 noundef 0, i64 noundef 8) #27
  br label %gv_calloc.exit68

88:                                               ; preds = %.lr.ph83
  %mul.ov.i66 = icmp slt i32 %82, -1
  br i1 %mul.ov.i66, label %89, label %92

89:                                               ; preds = %88
  %90 = load ptr, ptr @stderr, align 8, !tbaa !47
  %91 = tail call i32 (ptr, ptr, ...) @fprintf(ptr noundef %90, ptr noundef nonnull @.str.10, i64 noundef %86, i64 noundef 8) #25
  tail call fastcc void @graphviz_exit() #26
  unreachable

92:                                               ; preds = %88
  %93 = tail call noalias ptr @calloc(i64 noundef %86, i64 noundef 8) #27
  %94 = icmp eq ptr %93, null
  br i1 %94, label %95, label %gv_calloc.exit68

95:                                               ; preds = %92
  %96 = load ptr, ptr @stderr, align 8, !tbaa !47
  %97 = shl nuw nsw i64 %86, 3
  %98 = tail call i32 (ptr, ptr, ...) @fprintf(ptr noundef %96, ptr noundef nonnull @.str.11, i64 noundef %97) #25
  tail call fastcc void @graphviz_exit() #26
  unreachable

gv_calloc.exit68:                                 ; preds = %.thread.i67, %92
  %99 = phi ptr [ %87, %.thread.i67 ], [ %93, %92 ]
  %100 = getelementptr inbounds %struct.rank_t, ptr %75, i64 %indvars.iv87, i32 1
  store ptr %99, ptr %100, align 8, !tbaa !37
  %101 = getelementptr inbounds %struct.rank_t, ptr %75, i64 %indvars.iv87, i32 3
  store ptr %99, ptr %101, align 8, !tbaa !90
  %indvars.iv.next88 = add nsw i64 %indvars.iv87, 1
  %lftr.wideiv90 = trunc i64 %indvars.iv.next88 to i32
  %exitcond91.not = icmp eq i32 %80, %lftr.wideiv90
  br i1 %exitcond91.not, label %._crit_edge84, label %.lr.ph83, !llvm.loop !158

._crit_edge84:                                    ; preds = %gv_calloc.exit68, %gv_calloc.exit63
  tail call void @free(ptr noundef %20) #23
  ret void
}